(dp0
S'Captain'
p1
(dp2
S'Shoot'
p3
V2
p4
sS'Shield'
p5
V12
p6
sS'Items'
p7
(lp8
VBlaster
p9
aVBlaster
p10
asS'Move'
p11
V5
p12
sS'Experience'
p13
V0
p14
sS'Fight'
p15
V2
p16
sS'Morale'
p17
V4
p18
sS'Skillset'
p19
(lp20
VRepair
p21
aVSabotage
p22
aVRepair
p23
aVSabotage
p24
asS'Cost'
p25
I0
sS'Health'
p26
V12
p27
sS'Specialism'
p28
VEngineering
p29
ssS'Treasury'
p30
I420
sS'Name'
p31
Vrg
p32
sS'Troops'
p33
(lp34
VLackey
p35
aVMedic
p36
as.