(dp0
S'Captain'
p1
(dp2
S'Shoot'
p3
V2
p4
sS'Shield'
p5
V12
p6
sS'Items'
p7
(lp8
VNeedle Gun
p9
aVNeedle Gun
p10
asS'Move'
p11
V5
p12
sS'Experience'
p13
V0
p14
sS'Fight'
p15
V2
p16
sS'Morale'
p17
V4
p18
sS'Skillset'
p19
(lp20
VAim
p21
aVAim
p22
asS'Cost'
p23
I0
sS'Health'
p24
V12
p25
sS'Specialism'
p26
VMarksman
p27
ssS'Treasury'
p28
I326
sS'Name'
p29
Vtiff
p30
sS'Troops'
p31
(lp32
VCombat Droid
p33
as.